target datalayout = "e-m:e-p270:32:32-p271:32:32-p272:64:64-i64:64-i128:128-f80:128-n8:16:32:64-S128"
target triple = "x86_64-pc-linux-gnu"

%class.CmdExtract = type { %class.Array, ptr, i8, %class.RarTime, ptr, %class.ComprDataIO, ptr, i64, i64, i64, i8, i8, i8, i8, i8, [2048 x i32], i8, i8, [2048 x i32], i8, i8, %"class.std::__cxx11::basic_string" }
%class.Array = type { ptr, i64, i64, i64 }
%class.RarTime = type { i64 }
%class.ComprDataIO = type <{ i8, [7 x i8], i64, ptr, i8, [7 x i8], i64, ptr, i64, ptr, i64, i64, i8, i8, i8, i8, [4 x i8], ptr, ptr, ptr, ptr, ptr, ptr, ptr, i32, i32, i8, i8, i8, [5 x i8], i64, i64, i64, i64, i64, i64, i64, %class.DataHash, %class.DataHash, %class.DataHash, i8, i8, [6 x i8] }>
%class.DataHash = type { i32, i32, ptr }
%"class.std::__cxx11::basic_string" = type { %"struct.std::__cxx11::basic_string<wchar_t>::_Alloc_hider", i64, %union.anon }
%"struct.std::__cxx11::basic_string<wchar_t>::_Alloc_hider" = type { ptr }
%union.anon = type { i64, [8 x i8] }
%class.CommandData = type { %class.RAROptions, i8, i8, i32, i8, [2064 x i32], [2048 x i32], %class.StringList, %class.StringList, %class.StringList, %class.StringList, %class.StringList, %class.SecPassword, %"class.std::vector.5" }
%class.RAROptions = type { i32, i32, i8, i8, i8, i64, [2048 x i32], [2048 x i32], i32, i8, [2048 x i32], [2048 x i32], i32, i32, i32, i32, [2048 x i32], [2048 x i32], i8, i8, i8, [2048 x i32], i32, i32, i32, i32, i32, i32, i32, i32, i8, i8, i8, i8, i8, i32, i32, i8, i8, i8, i8, i8, i32, i32, i64, i32, i8, i8, i8, i32, i32, i8, i8, i8, i8, i32, i32, i8, i8, i8, i8, [128 x i32], [128 x i32], i8, i8, i8, i8, i8, %class.RarTime, %class.RarTime, %class.RarTime, i8, i8, i8, %class.RarTime, %class.RarTime, %class.RarTime, i8, i8, i8, i64, i64, i8, i8, i8, [16 x %struct.FilterMode], [2048 x i32], i32, i32, i32, i32, i32, i32, i8, [2048 x i32], i32, [2048 x i32], i32, i32, i64, ptr, ptr, ptr }
%struct.FilterMode = type { i32, i32, i32 }
%class.StringList = type { %class.Array.4, i64, i64, [16 x i64], i64 }
%class.Array.4 = type { ptr, i64, i64, i64 }
%class.SecPassword = type <{ %"class.std::vector", i8, [7 x i8] }>
%"class.std::vector" = type { %"struct.std::_Vector_base" }
%"struct.std::_Vector_base" = type { %"struct.std::_Vector_base<wchar_t, std::allocator<wchar_t>>::_Vector_impl" }
%"struct.std::_Vector_base<wchar_t, std::allocator<wchar_t>>::_Vector_impl" = type { %"struct.std::_Vector_base<wchar_t, std::allocator<wchar_t>>::_Vector_impl_data" }
%"struct.std::_Vector_base<wchar_t, std::allocator<wchar_t>>::_Vector_impl_data" = type { ptr, ptr, ptr }
%"class.std::vector.5" = type { %"struct.std::_Vector_base.6" }
%"struct.std::_Vector_base.6" = type { %"struct.std::_Vector_base<long, std::allocator<long>>::_Vector_impl" }
%"struct.std::_Vector_base<long, std::allocator<long>>::_Vector_impl" = type { %"struct.std::_Vector_base<long, std::allocator<long>>::_Vector_impl_data" }
%"struct.std::_Vector_base<long, std::allocator<long>>::_Vector_impl_data" = type { ptr, ptr, ptr }

; Function Attrs: mustprogress nounwind uwtable
define linkonce_odr noundef zeroext i1 @_ZN11SecPassword5IsSetEv(ptr noundef nonnull align 8 dereferenceable(25) %0) #6 comdat align 2 {
  %2 = alloca ptr, align 8
  store ptr %0, ptr %2, align 8
  %3 = load ptr, ptr %2, align 8
  %4 = getelementptr inbounds %class.SecPassword, ptr %3, i32 0, i32 1
  %5 = load i8, ptr %4, align 8
  %6 = trunc i8 %5 to i1
  ret i1 %6
}

; Function Attrs: mustprogress uwtable
define void @_ZN10CmdExtract18ExtractArchiveInitER7Archive(ptr noundef nonnull align 8 dereferenceable(16800) %0, ptr noundef nonnull align 8 dereferenceable(57108) %1) #0 align 2 {
  %3 = alloca ptr, align 8
  %4 = alloca ptr, align 8
  store ptr %0, ptr %3, align 8
  store ptr %1, ptr %4, align 8
  %5 = load ptr, ptr %3, align 8
  %6 = getelementptr inbounds %class.CmdExtract, ptr %5, i32 0, i32 5
  %7 = load ptr, ptr %4, align 8
  call void @_ZN11ComprDataIO18AdjustTotalArcSizeEP7Archive(ptr noundef nonnull align 8 dereferenceable(266) %6, ptr noundef %7)
  %8 = getelementptr inbounds %class.CmdExtract, ptr %5, i32 0, i32 8
  store i64 0, ptr %8, align 8
  %9 = getelementptr inbounds %class.CmdExtract, ptr %5, i32 0, i32 9
  store i64 0, ptr %9, align 8
  %10 = getelementptr inbounds %class.CmdExtract, ptr %5, i32 0, i32 10
  store i8 1, ptr %10, align 8
  %11 = getelementptr inbounds %class.CmdExtract, ptr %5, i32 0, i32 4
  %12 = load ptr, ptr %11, align 8
  %13 = getelementptr inbounds %class.CommandData, ptr %12, i32 0, i32 12
  %14 = call noundef zeroext i1 @_ZN11SecPassword5IsSetEv(ptr noundef nonnull align 8 dereferenceable(25) %13)
  br i1 %14, label %17, label %15

15:                                               ; preds = %2
  %16 = call noundef zeroext i1 @_Z21uiIsGlobalPasswordSetv()
  br label %17

17:                                               ; preds = %15, %2
  %18 = phi i1 [ true, %2 ], [ %16, %15 ]
  %19 = getelementptr inbounds %class.CmdExtract, ptr %5, i32 0, i32 16
  %20 = zext i1 %18 to i8
  store i8 %20, ptr %19, align 8
  %21 = getelementptr inbounds %class.CmdExtract, ptr %5, i32 0, i32 5
  %22 = getelementptr inbounds %class.ComprDataIO, ptr %21, i32 0, i32 27
  store i8 0, ptr %22, align 1
  %23 = getelementptr inbounds %class.CmdExtract, ptr %5, i32 0, i32 17
  store i8 0, ptr %23, align 1
  %24 = getelementptr inbounds %class.CmdExtract, ptr %5, i32 0, i32 11
  store i8 1, ptr %24, align 1
  %25 = getelementptr inbounds %class.CmdExtract, ptr %5, i32 0, i32 14
  store i8 0, ptr %25, align 4
  %26 = getelementptr inbounds %class.CmdExtract, ptr %5, i32 0, i32 2
  store i8 0, ptr %26, align 8
  %27 = getelementptr inbounds %class.CmdExtract, ptr %5, i32 0, i32 3
  call void @_ZN7RarTime14SetCurrentTimeEv(ptr noundef nonnull align 8 dereferenceable(8) %27)
  %28 = getelementptr inbounds %class.CmdExtract, ptr %5, i32 0, i32 21
  call void @_ZNSt7__cxx1112basic_stringIwSt11char_traitsIwESaIwEE5clearEv(ptr noundef nonnull align 8 dereferenceable(32) %28) #12
  ret void
}