; Function Attrs: mustprogress uwtable
define void @_ZN10CmdExtract18ExtractArchiveInitER7Archive(ptr noundef nonnull align 8 dereferenceable(16800) %0, ptr noundef nonnull align 8 dereferenceable(57108) %1) local_unnamed_addr #0 align 2 {
  %3 = getelementptr inbounds i8, ptr %0, i64 64
  tail call void @_ZN11ComprDataIO18AdjustTotalArcSizeEP7Archive(ptr noundef nonnull align 8 dereferenceable(266) %3, ptr noundef nonnull %1)
  %4 = getelementptr inbounds i8, ptr %0, i64 352
  %5 = getelementptr inbounds i8, ptr %0, i64 368
  tail call void @llvm.memset.p0.i64(ptr noundef nonnull align 8 dereferenceable(16) %4, i8 0, i64 16, i1 false)
  store i8 1, ptr %5, align 8
  %6 = getelementptr inbounds i8, ptr %0, i64 56
  %7 = load ptr, ptr %6, align 8
  %8 = getelementptr inbounds i8, ptr %7, i64 100872
  %9 = load i8, ptr %8, align 8
  %10 = trunc i8 %9 to i1
  br i1 %10, label %14, label %11

11:                                               ; preds = %2
  %12 = tail call noundef zeroext i1 @_Z21uiIsGlobalPasswordSetv()
  %13 = zext i1 %12 to i8
  br label %14

14:                                               ; preds = %11, %2
  %15 = phi i8 [ 1, %2 ], [ %13, %11 ]
  %16 = getelementptr inbounds i8, ptr %0, i64 8568
  store i8 %15, ptr %16, align 8
  %17 = getelementptr inbounds i8, ptr %0, i64 217
  store i8 0, ptr %17, align 1
  %18 = getelementptr inbounds i8, ptr %0, i64 8569
  store i8 0, ptr %18, align 1
  %19 = getelementptr inbounds i8, ptr %0, i64 369
  store i8 1, ptr %19, align 1
  %20 = getelementptr inbounds i8, ptr %0, i64 372
  store i8 0, ptr %20, align 4
  %21 = getelementptr inbounds i8, ptr %0, i64 40
  store i8 0, ptr %21, align 8
  %22 = getelementptr inbounds i8, ptr %0, i64 48
  tail call void @_ZN7RarTime14SetCurrentTimeEv(ptr noundef nonnull align 8 dereferenceable(8) %22)
  %23 = getelementptr inbounds i8, ptr %0, i64 16768
  tail call void @_ZNSt7__cxx1112basic_stringIwSt11char_traitsIwESaIwEE5clearEv(ptr noundef nonnull align 8 dereferenceable(32) %23) #18
  ret void
}